; Function Attrs: null_pointer_is_valid sspstrong uwtable
define internal i32 @dissect_ulp_T_ganssId(ptr noundef %0, i32 noundef %1, ptr noundef %2, ptr noundef %3, i32 noundef %4) #0 {
  %6 = alloca i32, align 4
  call void @llvm.lifetime.start.p0(i64 4, ptr nonnull %6) #8
  %7 = getelementptr inbounds nuw i8, ptr %2, i64 48
  %8 = load ptr, ptr %7, align 8
  %9 = icmp eq ptr %8, null
  br i1 %9, label %10, label %ulp_get_private_data.exit

10:                                               ; preds = %5
  %11 = getelementptr inbounds nuw i8, ptr %2, i64 16
  %12 = load ptr, ptr %11, align 8
  %13 = getelementptr inbounds nuw i8, ptr %12, i64 408
  %14 = load ptr, ptr %13, align 8
  %15 = tail call noalias dereferenceable_or_null(2) ptr @wmem_alloc0(ptr noundef %14, i64 noundef 2) #9
  store ptr %15, ptr %7, align 8
  br label %ulp_get_private_data.exit

ulp_get_private_data.exit:                        ; preds = %5, %10
  %16 = phi ptr [ %15, %10 ], [ %8, %5 ]
  %17 = call i32 @dissect_per_constrained_integer(ptr noundef %0, i32 noundef %1, ptr noundef %2, ptr noundef %3, i32 noundef %4, i32 noundef 0, i32 noundef 15, ptr noundef nonnull %6, i1 noundef zeroext false)
  %18 = load i32, ptr %6, align 4
  %19 = trunc i32 %18 to i8
  %20 = getelementptr inbounds nuw i8, ptr %16, i64 1
  store i8 %19, ptr %20, align 1
  call void @llvm.lifetime.end.p0(i64 4, ptr nonnull %6) #8
  ret i32 %17
}